target datalayout = "e-m:e-p270:32:32-p271:32:32-p272:64:64-i64:64-i128:128-f80:128-n8:16:32:64-S128"
target triple = "x86_64-unknown-linux-gnu"

%"class.hermes::vm::HermesValue" = type { i64 }
%"class.hermes::vm::CompressedPointer" = type { %"class.hermes::vm::BasedPointer" }
%"class.hermes::vm::BasedPointer" = type { i32 }
%"class.hermes::vm::CallResult" = type { i32, %"class.hermes::vm::HermesValue" }
%"class.hermes::vm::CallResult.193" = type { ptr }
%"class.hermes::vm::NativeArgs" = type { %"class.std::reverse_iterator", i32, ptr }
%"class.std::reverse_iterator" = type { ptr }
%"class.hermes::vm::PropertyAccessor" = type { %"class.hermes::vm::GCCell", %"class.hermes::vm::GCPointer.194", %"class.hermes::vm::GCPointer.194" }
%"class.hermes::vm::GCCell" = type { %union.anon.162 }
%union.anon.162 = type { %"class.hermes::vm::KindAndSize" }
%"class.hermes::vm::KindAndSize" = type { i32 }
%"class.hermes::vm::GCPointer.194" = type { %"class.hermes::vm::GCPointerBase" }
%"class.hermes::vm::GCPointerBase" = type { %"class.hermes::vm::CompressedPointer" }

; Function Attrs: mustprogress nounwind uwtable
define linkonce_odr hidden noundef ptr @_ZN4llvh16cast_convert_valIN6hermes2vm8CallableEPNS2_6GCCellES5_E4doitERKS5_(ptr noundef nonnull align 8 dereferenceable(8) %Val) #0 comdat align 2 {
entry:
  %Val.addr = alloca ptr, align 8
  %Res2 = alloca ptr, align 8
  store ptr %Val, ptr %Val.addr, align 8
  %0 = load ptr, ptr %Val.addr, align 8
  %1 = load ptr, ptr %0, align 8
  store ptr %1, ptr %Res2, align 8
  %2 = load ptr, ptr %Res2, align 8
  ret ptr %2
}

; Function Attrs: mustprogress nounwind uwtable
define linkonce_odr hidden noundef i32 @_ZNK6hermes2vm12BasedPointer11getRawValueEv(ptr noundef nonnull align 4 dereferenceable(4) %this) #0 comdat align 2 {
entry:
  %this.addr = alloca ptr, align 8
  store ptr %this, ptr %this.addr, align 8
  %this1 = load ptr, ptr %this.addr, align 8
  %raw_ = getelementptr inbounds %"class.hermes::vm::BasedPointer", ptr %this1, i32 0, i32 0
  %0 = load i32, ptr %raw_, align 4
  ret i32 %0
}

; Function Attrs: mustprogress nounwind uwtable
define linkonce_odr hidden void @_ZN6hermes2vm11HermesValueC2EmNS1_3TagE(ptr noundef nonnull align 8 dereferenceable(8) %this, i64 noundef %val, i64 noundef %tag) unnamed_addr #0 comdat align 2 {
entry:
  %this.addr = alloca ptr, align 8
  %val.addr = alloca i64, align 8
  %tag.addr = alloca i64, align 8
  store ptr %this, ptr %this.addr, align 8
  store i64 %val, ptr %val.addr, align 8
  store i64 %tag, ptr %tag.addr, align 8
  %this1 = load ptr, ptr %this.addr, align 8
  %raw_ = getelementptr inbounds %"class.hermes::vm::HermesValue", ptr %this1, i32 0, i32 0
  %0 = load i64, ptr %val.addr, align 8
  %1 = load i64, ptr %tag.addr, align 8
  %shl = shl i64 %1, 48
  %or = or i64 %0, %shl
  store i64 %or, ptr %raw_, align 8
  ret void
}

; Function Attrs: mustprogress nounwind uwtable
define linkonce_odr hidden void @_ZN6hermes2vm11HermesValue15validatePointerEPKv(ptr noundef %ptr) #0 comdat align 2 {
entry:
  %ptr.addr = alloca ptr, align 8
  store ptr %ptr, ptr %ptr.addr, align 8
  ret void
}

; Function Attrs: mustprogress nounwind uwtable
define linkonce_odr hidden noundef ptr @_ZN4llvh4castIN6hermes2vm8CallableENS2_6GCCellEEENS_10cast_rettyIT_PT0_E8ret_typeES8_(ptr noundef %Val) #0 comdat {
entry:
  %Val.addr = alloca ptr, align 8
  store ptr %Val, ptr %Val.addr, align 8
  %call = call noundef ptr @_ZN4llvh16cast_convert_valIN6hermes2vm8CallableEPNS2_6GCCellES5_E4doitERKS5_(ptr noundef nonnull align 8 dereferenceable(8) %Val.addr)
  ret ptr %call
}

; Function Attrs: mustprogress nounwind uwtable
define linkonce_odr hidden noundef ptr @_ZNK6hermes2vm11PointerBase21basedToPointerNonNullENS0_12BasedPointerE(ptr noundef nonnull align 1 dereferenceable(1) %this, i32 %ptr.coerce) #0 comdat align 2 {
entry:
  %ptr = alloca %"class.hermes::vm::BasedPointer", align 4
  %this.addr = alloca ptr, align 8
  %addr = alloca i64, align 8
  %coerce.dive = getelementptr inbounds %"class.hermes::vm::BasedPointer", ptr %ptr, i32 0, i32 0
  store i32 %ptr.coerce, ptr %coerce.dive, align 4
  store ptr %this, ptr %this.addr, align 8
  %this1 = load ptr, ptr %this.addr, align 8
  %0 = ptrtoint ptr %this1 to i64
  %call = call noundef i32 @_ZNK6hermes2vm12BasedPointer11getRawValueEv(ptr noundef nonnull align 4 dereferenceable(4) %ptr)
  %conv = zext i32 %call to i64
  %add = add i64 %0, %conv
  store i64 %add, ptr %addr, align 8
  %1 = load i64, ptr %addr, align 8
  %2 = inttoptr i64 %1 to ptr
  ret ptr %2
}

; Function Attrs: mustprogress nounwind uwtable
define linkonce_odr hidden void @_ZN6hermes2vm11HermesValueC2EmNS1_4ETagE(ptr noundef nonnull align 8 dereferenceable(8) %this, i64 noundef %val, i64 noundef %etag) unnamed_addr #0 comdat align 2 {
entry:
  %this.addr = alloca ptr, align 8
  %val.addr = alloca i64, align 8
  %etag.addr = alloca i64, align 8
  store ptr %this, ptr %this.addr, align 8
  store i64 %val, ptr %val.addr, align 8
  store i64 %etag, ptr %etag.addr, align 8
  %this1 = load ptr, ptr %this.addr, align 8
  %raw_ = getelementptr inbounds %"class.hermes::vm::HermesValue", ptr %this1, i32 0, i32 0
  %0 = load i64, ptr %val.addr, align 8
  %1 = load i64, ptr %etag.addr, align 8
  %shl = shl i64 %1, 47
  %or = or i64 %0, %shl
  store i64 %or, ptr %raw_, align 8
  ret void
}

; Function Attrs: mustprogress nounwind uwtable
define linkonce_odr hidden i64 @_ZN6hermes2vm11HermesValue23encodeObjectValueUnsafeEPv(ptr noundef %val) #0 comdat align 2 {
entry:
  %retval = alloca %"class.hermes::vm::HermesValue", align 8
  %val.addr = alloca ptr, align 8
  store ptr %val, ptr %val.addr, align 8
  %0 = load ptr, ptr %val.addr, align 8
  call void @_ZN6hermes2vm11HermesValue15validatePointerEPKv(ptr noundef %0)
  %1 = load ptr, ptr %val.addr, align 8
  %2 = ptrtoint ptr %1 to i64
  call void @_ZN6hermes2vm11HermesValueC2EmNS1_3TagE(ptr noundef nonnull align 8 dereferenceable(8) %retval, i64 noundef %2, i64 noundef -1)
  %coerce.dive = getelementptr inbounds %"class.hermes::vm::HermesValue", ptr %retval, i32 0, i32 0
  %3 = load i64, ptr %coerce.dive, align 8
  ret i64 %3
}

; Function Attrs: mustprogress nounwind uwtable
define linkonce_odr hidden noundef ptr @_ZN6hermes2vm6vmcastINS0_8CallableEEEPT_PNS0_6GCCellE(ptr noundef %cell) #0 comdat {
entry:
  %cell.addr = alloca ptr, align 8
  store ptr %cell, ptr %cell.addr, align 8
  %0 = load ptr, ptr %cell.addr, align 8
  %call = call noundef ptr @_ZN4llvh4castIN6hermes2vm8CallableENS2_6GCCellEEENS_10cast_rettyIT_PT0_E8ret_typeES8_(ptr noundef %0)
  ret ptr %call
}

; Function Attrs: mustprogress nounwind uwtable
define linkonce_odr hidden noundef ptr @_ZNK6hermes2vm17CompressedPointer10getNonNullERNS0_11PointerBaseE(ptr noundef nonnull align 4 dereferenceable(4) %this, ptr noundef nonnull align 1 dereferenceable(1) %base) #0 comdat align 2 {
entry:
  %this.addr = alloca ptr, align 8
  %base.addr = alloca ptr, align 8
  %agg.tmp = alloca %"class.hermes::vm::BasedPointer", align 4
  store ptr %this, ptr %this.addr, align 8
  store ptr %base, ptr %base.addr, align 8
  %this1 = load ptr, ptr %this.addr, align 8
  %0 = load ptr, ptr %base.addr, align 8
  %ptr_ = getelementptr inbounds %"class.hermes::vm::CompressedPointer", ptr %this1, i32 0, i32 0
  call void @llvm.memcpy.p0.p0.i64(ptr align 4 %agg.tmp, ptr align 4 %ptr_, i64 4, i1 false)
  %coerce.dive = getelementptr inbounds %"class.hermes::vm::BasedPointer", ptr %agg.tmp, i32 0, i32 0
  %1 = load i32, ptr %coerce.dive, align 4
  %call = call noundef ptr @_ZNK6hermes2vm11PointerBase21basedToPointerNonNullENS0_12BasedPointerE(ptr noundef nonnull align 1 dereferenceable(1) %0, i32 %1)
  ret ptr %call
}

; Function Attrs: mustprogress nounwind uwtable
define linkonce_odr hidden noundef zeroext i1 @_ZNK6hermes2vm12BasedPointercvbEv(ptr noundef nonnull align 4 dereferenceable(4) %this) #0 comdat align 2 {
entry:
  %this.addr = alloca ptr, align 8
  store ptr %this, ptr %this.addr, align 8
  %this1 = load ptr, ptr %this.addr, align 8
  %raw_ = getelementptr inbounds %"class.hermes::vm::BasedPointer", ptr %this1, i32 0, i32 0
  %0 = load i32, ptr %raw_, align 4
  %cmp = icmp ne i32 %0, 0
  ret i1 %cmp
}

; Function Attrs: mustprogress nounwind uwtable
define linkonce_odr hidden noundef nonnull align 8 dereferenceable(8) ptr @_ZN6hermes2vm10CallResultIPNS0_16PropertyAccessorELNS0_6detail20CallResultSpecializeE3EE8getValueEv(ptr noundef nonnull align 8 dereferenceable(8) %this) #0 comdat align 2 {
entry:
  %this.addr = alloca ptr, align 8
  store ptr %this, ptr %this.addr, align 8
  %this1 = load ptr, ptr %this.addr, align 8
  %valueOrStatus_ = getelementptr inbounds %"class.hermes::vm::CallResult.193", ptr %this1, i32 0, i32 0
  ret ptr %valueOrStatus_
}

; Function Attrs: mustprogress nounwind uwtable
define linkonce_odr hidden noundef i32 @_ZNK6hermes2vm10CallResultIPNS0_16PropertyAccessorELNS0_6detail20CallResultSpecializeE3EE9getStatusEv(ptr noundef nonnull align 8 dereferenceable(8) %this) #0 comdat align 2 {
entry:
  %this.addr = alloca ptr, align 8
  store ptr %this, ptr %this.addr, align 8
  %this1 = load ptr, ptr %this.addr, align 8
  %valueOrStatus_ = getelementptr inbounds %"class.hermes::vm::CallResult.193", ptr %this1, i32 0, i32 0
  %0 = load ptr, ptr %valueOrStatus_, align 8
  %1 = ptrtoint ptr %0 to i64
  %cmp = icmp eq i64 %1, -1
  %cond = select i1 %cmp, i32 0, i32 1
  ret i32 %cond
}

; Function Attrs: mustprogress nounwind uwtable
define linkonce_odr hidden void @_ZNSt16reverse_iteratorIPKN6hermes2vm17PinnedHermesValueEEC2ERKS5_(ptr noundef nonnull align 8 dereferenceable(8) %this, ptr noundef nonnull align 8 dereferenceable(8) %__x) unnamed_addr #0 comdat align 2 {
entry:
  %this.addr = alloca ptr, align 8
  %__x.addr = alloca ptr, align 8
  store ptr %this, ptr %this.addr, align 8
  store ptr %__x, ptr %__x.addr, align 8
  %this1 = load ptr, ptr %this.addr, align 8
  %current = getelementptr inbounds %"class.std::reverse_iterator", ptr %this1, i32 0, i32 0
  %0 = load ptr, ptr %__x.addr, align 8
  %current2 = getelementptr inbounds %"class.std::reverse_iterator", ptr %0, i32 0, i32 0
  %1 = load ptr, ptr %current2, align 8
  store ptr %1, ptr %current, align 8
  ret void
}

; Function Attrs: mustprogress nounwind uwtable
define linkonce_odr hidden void @_ZN6hermes2vm10CallResultINS0_11HermesValueELNS0_6detail20CallResultSpecializeE2EEC2ES2_(ptr noundef nonnull align 8 dereferenceable(16) %this, i64 %value.coerce) unnamed_addr #0 comdat align 2 {
entry:
  %value = alloca %"class.hermes::vm::HermesValue", align 8
  %this.addr = alloca ptr, align 8
  %coerce.dive = getelementptr inbounds %"class.hermes::vm::HermesValue", ptr %value, i32 0, i32 0
  store i64 %value.coerce, ptr %coerce.dive, align 8
  store ptr %this, ptr %this.addr, align 8
  %this1 = load ptr, ptr %this.addr, align 8
  %status_ = getelementptr inbounds %"class.hermes::vm::CallResult", ptr %this1, i32 0, i32 0
  store i32 1, ptr %status_, align 8
  %storage_2 = getelementptr inbounds %"class.hermes::vm::CallResult", ptr %this1, i32 0, i32 1
  call void @llvm.memcpy.p0.p0.i64(ptr align 8 %storage_2, ptr align 8 %value, i64 8, i1 false)
  ret void
}

; Function Attrs: mustprogress nounwind uwtable
define linkonce_odr hidden i64 @_ZN6hermes2vm11HermesValue20encodeUndefinedValueEv() #0 comdat align 2 {
entry:
  %retval = alloca %"class.hermes::vm::HermesValue", align 8
  call void @_ZN6hermes2vm11HermesValueC2EmNS1_4ETagE(ptr noundef nonnull align 8 dereferenceable(8) %retval, i64 noundef 0, i64 noundef -12)
  %coerce.dive = getelementptr inbounds %"class.hermes::vm::HermesValue", ptr %retval, i32 0, i32 0
  %0 = load i64, ptr %coerce.dive, align 8
  ret i64 %0
}

; Function Attrs: mustprogress nounwind uwtable
define linkonce_odr hidden i64 @_ZN6hermes2vm11HermesValue17encodeObjectValueEPv(ptr noundef %val) #0 comdat align 2 {
entry:
  %retval = alloca %"class.hermes::vm::HermesValue", align 8
  %val.addr = alloca ptr, align 8
  store ptr %val, ptr %val.addr, align 8
  %0 = load ptr, ptr %val.addr, align 8
  %call = call i64 @_ZN6hermes2vm11HermesValue23encodeObjectValueUnsafeEPv(ptr noundef %0)
  %coerce.dive = getelementptr inbounds %"class.hermes::vm::HermesValue", ptr %retval, i32 0, i32 0
  store i64 %call, ptr %coerce.dive, align 8
  %coerce.dive1 = getelementptr inbounds %"class.hermes::vm::HermesValue", ptr %retval, i32 0, i32 0
  %1 = load i64, ptr %coerce.dive1, align 8
  ret i64 %1
}

; Function Attrs: mustprogress nounwind uwtable
define linkonce_odr hidden noundef ptr @_ZNK6hermes2vm9GCPointerINS0_8CallableEE10getNonNullERNS0_11PointerBaseE(ptr noundef nonnull align 4 dereferenceable(4) %this, ptr noundef nonnull align 1 dereferenceable(1) %base) #0 comdat align 2 {
entry:
  %this.addr = alloca ptr, align 8
  %base.addr = alloca ptr, align 8
  store ptr %this, ptr %this.addr, align 8
  store ptr %base, ptr %base.addr, align 8
  %this1 = load ptr, ptr %this.addr, align 8
  %0 = load ptr, ptr %base.addr, align 8
  %call = call noundef ptr @_ZNK6hermes2vm17CompressedPointer10getNonNullERNS0_11PointerBaseE(ptr noundef nonnull align 4 dereferenceable(4) %this1, ptr noundef nonnull align 1 dereferenceable(1) %0)
  %call2 = call noundef ptr @_ZN6hermes2vm6vmcastINS0_8CallableEEEPT_PNS0_6GCCellE(ptr noundef %call)
  ret ptr %call2
}

; Function Attrs: mustprogress nounwind uwtable
define linkonce_odr hidden noundef zeroext i1 @_ZNK6hermes2vm17CompressedPointercvbEv(ptr noundef nonnull align 4 dereferenceable(4) %this) #0 comdat align 2 {
entry:
  %this.addr = alloca ptr, align 8
  store ptr %this, ptr %this.addr, align 8
  %this1 = load ptr, ptr %this.addr, align 8
  %ptr_ = getelementptr inbounds %"class.hermes::vm::CompressedPointer", ptr %this1, i32 0, i32 0
  %call = call noundef zeroext i1 @_ZNK6hermes2vm12BasedPointercvbEv(ptr noundef nonnull align 4 dereferenceable(4) %ptr_)
  ret i1 %call
}

; Function Attrs: mustprogress nounwind uwtable
define linkonce_odr hidden noundef nonnull align 8 dereferenceable(8) ptr @_ZN6hermes2vm10CallResultIPNS0_16PropertyAccessorELNS0_6detail20CallResultSpecializeE3EEdeEv(ptr noundef nonnull align 8 dereferenceable(8) %this) #0 comdat align 2 {
entry:
  %this.addr = alloca ptr, align 8
  store ptr %this, ptr %this.addr, align 8
  %this1 = load ptr, ptr %this.addr, align 8
  %call = call noundef nonnull align 8 dereferenceable(8) ptr @_ZN6hermes2vm10CallResultIPNS0_16PropertyAccessorELNS0_6detail20CallResultSpecializeE3EE8getValueEv(ptr noundef nonnull align 8 dereferenceable(8) %this1)
  ret ptr %call
}

; Function Attrs: mustprogress nounwind uwtable
define linkonce_odr hidden void @_ZN6hermes2vm10CallResultINS0_11HermesValueELNS0_6detail20CallResultSpecializeE2EEC2ENS0_15ExecutionStatusE(ptr noundef nonnull align 8 dereferenceable(16) %this, i32 noundef %status) unnamed_addr #0 comdat align 2 {
entry:
  %this.addr = alloca ptr, align 8
  %status.addr = alloca i32, align 4
  store ptr %this, ptr %this.addr, align 8
  store i32 %status, ptr %status.addr, align 4
  %this1 = load ptr, ptr %this.addr, align 8
  %status_ = getelementptr inbounds %"class.hermes::vm::CallResult", ptr %this1, i32 0, i32 0
  %0 = load i32, ptr %status.addr, align 4
  store i32 %0, ptr %status_, align 8
  ret void
}

; Function Attrs: mustprogress nounwind uwtable
define linkonce_odr hidden noundef zeroext i1 @_ZN6hermes2vmeqIPNS0_16PropertyAccessorEEEbRKNS0_10CallResultIT_Xsr6detail23GetCallResultSpecializeIS5_EE5valueEEENS0_15ExecutionStatusE(ptr noundef nonnull align 8 dereferenceable(8) %lhs, i32 noundef %rhs) #0 comdat {
entry:
  %lhs.addr = alloca ptr, align 8
  %rhs.addr = alloca i32, align 4
  store ptr %lhs, ptr %lhs.addr, align 8
  store i32 %rhs, ptr %rhs.addr, align 4
  %0 = load ptr, ptr %lhs.addr, align 8
  %call = call noundef i32 @_ZNK6hermes2vm10CallResultIPNS0_16PropertyAccessorELNS0_6detail20CallResultSpecializeE3EE9getStatusEv(ptr noundef nonnull align 8 dereferenceable(8) %0)
  %1 = load i32, ptr %rhs.addr, align 4
  %cmp = icmp eq i32 %call, %1
  ret i1 %cmp
}

; Function Attrs: mustprogress nounwind uwtable
define linkonce_odr hidden void @_ZN6hermes2vm10NativeArgsC2ERKS1_(ptr noundef nonnull align 8 dereferenceable(24) %this, ptr noundef nonnull align 8 dereferenceable(24) %0) unnamed_addr #0 comdat align 2 {
entry:
  %this.addr = alloca ptr, align 8
  %.addr = alloca ptr, align 8
  store ptr %this, ptr %this.addr, align 8
  store ptr %0, ptr %.addr, align 8
  %this1 = load ptr, ptr %this.addr, align 8
  %firstArg_ = getelementptr inbounds %"class.hermes::vm::NativeArgs", ptr %this1, i32 0, i32 0
  %1 = load ptr, ptr %.addr, align 8
  %firstArg_2 = getelementptr inbounds %"class.hermes::vm::NativeArgs", ptr %1, i32 0, i32 0
  call void @_ZNSt16reverse_iteratorIPKN6hermes2vm17PinnedHermesValueEEC2ERKS5_(ptr noundef nonnull align 8 dereferenceable(8) %firstArg_, ptr noundef nonnull align 8 dereferenceable(8) %firstArg_2) #9
  %argCount_ = getelementptr inbounds %"class.hermes::vm::NativeArgs", ptr %this1, i32 0, i32 1
  %2 = load ptr, ptr %.addr, align 8
  %argCount_3 = getelementptr inbounds %"class.hermes::vm::NativeArgs", ptr %2, i32 0, i32 1
  call void @llvm.memcpy.p0.p0.i64(ptr align 8 %argCount_, ptr align 8 %argCount_3, i64 16, i1 false)
  ret void
}

; Function Attrs: mustprogress nounwind uwtable
define hidden { i32, i64 } @_ZN6hermes2vm27objectPrototypeLookupGetterEPvRNS0_7RuntimeENS0_10NativeArgsE(ptr noundef %0, ptr noundef nonnull align 8 dereferenceable(9832) %runtime, ptr noundef %args) #0 {
entry:
  %retval = alloca %"class.hermes::vm::CallResult", align 8
  %.addr = alloca ptr, align 8
  %runtime.addr = alloca ptr, align 8
  %args.indirect_addr = alloca ptr, align 8
  %accessorRes = alloca %"class.hermes::vm::CallResult.193", align 8
  %agg.tmp = alloca %"class.hermes::vm::NativeArgs", align 8
  %agg.tmp2 = alloca %"class.hermes::vm::HermesValue", align 8
  store ptr %0, ptr %.addr, align 8
  store ptr %runtime, ptr %runtime.addr, align 8
  store ptr %args, ptr %args.indirect_addr, align 8
  %1 = load ptr, ptr %runtime.addr, align 8
  call void @_ZN6hermes2vm10NativeArgsC2ERKS1_(ptr noundef nonnull align 8 dereferenceable(24) %agg.tmp, ptr noundef nonnull align 8 dereferenceable(24) %args) #9
  %call = call ptr @_ZN6hermes2vm12_GLOBAL__N_114lookupAccessorERNS0_7RuntimeENS0_10NativeArgsE(ptr noundef nonnull align 8 dereferenceable(9832) %1, ptr noundef %agg.tmp)
  %coerce.dive = getelementptr inbounds %"class.hermes::vm::CallResult.193", ptr %accessorRes, i32 0, i32 0
  store ptr %call, ptr %coerce.dive, align 8
  %call1 = call noundef zeroext i1 @_ZN6hermes2vmeqIPNS0_16PropertyAccessorEEEbRKNS0_10CallResultIT_Xsr6detail23GetCallResultSpecializeIS5_EE5valueEEENS0_15ExecutionStatusE(ptr noundef nonnull align 8 dereferenceable(8) %accessorRes, i32 noundef 0)
  br i1 %call1, label %if.then, label %if.end

if.then:                                          ; preds = %entry
  call void @_ZN6hermes2vm10CallResultINS0_11HermesValueELNS0_6detail20CallResultSpecializeE2EEC2ENS0_15ExecutionStatusE(ptr noundef nonnull align 8 dereferenceable(16) %retval, i32 noundef 0)
  br label %return

if.end:                                           ; preds = %entry
  %call3 = call noundef nonnull align 8 dereferenceable(8) ptr @_ZN6hermes2vm10CallResultIPNS0_16PropertyAccessorELNS0_6detail20CallResultSpecializeE3EEdeEv(ptr noundef nonnull align 8 dereferenceable(8) %accessorRes)
  %2 = load ptr, ptr %call3, align 8
  %tobool = icmp ne ptr %2, null
  br i1 %tobool, label %land.lhs.true, label %cond.false

land.lhs.true:                                    ; preds = %if.end
  %call4 = call noundef nonnull align 8 dereferenceable(8) ptr @_ZN6hermes2vm10CallResultIPNS0_16PropertyAccessorELNS0_6detail20CallResultSpecializeE3EEdeEv(ptr noundef nonnull align 8 dereferenceable(8) %accessorRes)
  %3 = load ptr, ptr %call4, align 8
  %getter = getelementptr inbounds %"class.hermes::vm::PropertyAccessor", ptr %3, i32 0, i32 1
  %call5 = call noundef zeroext i1 @_ZNK6hermes2vm17CompressedPointercvbEv(ptr noundef nonnull align 4 dereferenceable(4) %getter)
  br i1 %call5, label %cond.true, label %cond.false

cond.true:                                        ; preds = %land.lhs.true
  %call6 = call noundef nonnull align 8 dereferenceable(8) ptr @_ZN6hermes2vm10CallResultIPNS0_16PropertyAccessorELNS0_6detail20CallResultSpecializeE3EEdeEv(ptr noundef nonnull align 8 dereferenceable(8) %accessorRes)
  %4 = load ptr, ptr %call6, align 8
  %getter7 = getelementptr inbounds %"class.hermes::vm::PropertyAccessor", ptr %4, i32 0, i32 1
  %5 = load ptr, ptr %runtime.addr, align 8
  %call8 = call noundef ptr @_ZNK6hermes2vm9GCPointerINS0_8CallableEE10getNonNullERNS0_11PointerBaseE(ptr noundef nonnull align 4 dereferenceable(4) %getter7, ptr noundef nonnull align 1 dereferenceable(1) %5)
  %call9 = call i64 @_ZN6hermes2vm11HermesValue17encodeObjectValueEPv(ptr noundef %call8)
  %coerce.dive10 = getelementptr inbounds %"class.hermes::vm::HermesValue", ptr %agg.tmp2, i32 0, i32 0
  store i64 %call9, ptr %coerce.dive10, align 8
  br label %cond.end

cond.false:                                       ; preds = %land.lhs.true, %if.end
  %call11 = call i64 @_ZN6hermes2vm11HermesValue20encodeUndefinedValueEv()
  %coerce.dive12 = getelementptr inbounds %"class.hermes::vm::HermesValue", ptr %agg.tmp2, i32 0, i32 0
  store i64 %call11, ptr %coerce.dive12, align 8
  br label %cond.end

cond.end:                                         ; preds = %cond.false, %cond.true
  %coerce.dive13 = getelementptr inbounds %"class.hermes::vm::HermesValue", ptr %agg.tmp2, i32 0, i32 0
  %6 = load i64, ptr %coerce.dive13, align 8
  call void @_ZN6hermes2vm10CallResultINS0_11HermesValueELNS0_6detail20CallResultSpecializeE2EEC2ES2_(ptr noundef nonnull align 8 dereferenceable(16) %retval, i64 %6)
  br label %return

return:                                           ; preds = %cond.end, %if.then
  %7 = load { i32, i64 }, ptr %retval, align 8
  ret { i32, i64 } %7
}