; Function Attrs: mustprogress nounwind uwtable
define hidden { i32, i64 } @_ZN6hermes2vm27objectPrototypeLookupGetterEPvRNS0_7RuntimeENS0_10NativeArgsE(ptr readnone captures(none) %0, ptr noundef nonnull align 8 dereferenceable(9832) %runtime, ptr noundef readonly captures(none) %args) #0 {
entry:
  %agg.tmp = alloca %"class.hermes::vm::NativeArgs", align 8
  %1 = load ptr, ptr %args, align 8
  store ptr %1, ptr %agg.tmp, align 8
  %argCount_.i = getelementptr inbounds nuw i8, ptr %agg.tmp, i64 8
  %argCount_3.i = getelementptr inbounds nuw i8, ptr %args, i64 8
  call void @llvm.memcpy.p0.p0.i64(ptr noundef nonnull align 8 dereferenceable(16) %argCount_.i, ptr noundef nonnull align 8 dereferenceable(16) %argCount_3.i, i64 16, i1 false)
  %call = call fastcc ptr @_ZN6hermes2vm12_GLOBAL__N_114lookupAccessorERNS0_7RuntimeENS0_10NativeArgsE(ptr noundef nonnull align 8 dereferenceable(9832) %runtime, ptr noundef %agg.tmp)
  %magicptr = ptrtoint ptr %call to i64
  switch i64 %magicptr, label %land.lhs.true [
    i64 -1, label %return
    i64 0, label %return.fold.split
  ]

land.lhs.true:                                    ; preds = %entry
  %getter = getelementptr inbounds nuw i8, ptr %call, i64 4
  %2 = load i32, ptr %getter, align 4
  %cmp.i.i2.not = icmp eq i32 %2, 0
  br i1 %cmp.i.i2.not, label %return, label %cond.true

cond.true:                                        ; preds = %land.lhs.true
  %3 = ptrtoint ptr %runtime to i64
  %conv.i.i.i = zext i32 %2 to i64
  %add.i.i.i = add i64 %conv.i.i.i, %3
  %or.i.i.i = or i64 %add.i.i.i, -281474976710656
  br label %return

return.fold.split:                                ; preds = %entry
  br label %return

return:                                           ; preds = %entry, %return.fold.split, %cond.true, %land.lhs.true
  %retval.sroa.0.0 = phi i32 [ 0, %entry ], [ 1, %land.lhs.true ], [ 1, %cond.true ], [ 1, %return.fold.split ]
  %retval.sroa.3.0 = phi i64 [ undef, %entry ], [ -1688849860263936, %land.lhs.true ], [ %or.i.i.i, %cond.true ], [ -1688849860263936, %return.fold.split ]
  %.fca.0.insert = insertvalue { i32, i64 } poison, i32 %retval.sroa.0.0, 0
  %.fca.1.insert = insertvalue { i32, i64 } %.fca.0.insert, i64 %retval.sroa.3.0, 1
  ret { i32, i64 } %.fca.1.insert
}